; Function Attrs: cold noreturn null_pointer_is_valid sspstrong uwtable
define void @ws_log_fatal_full(ptr noundef %0, i32 noundef %1, ptr noundef %2, i64 noundef %3, ptr noundef %4, ptr noundef %5, ...) local_unnamed_addr #11 {
  %7 = alloca %struct.ws_log_manifest_t, align 8
  %8 = alloca [1 x %struct.__va_list_tag], align 16
  call void @llvm.lifetime.start.p0(i64 72, ptr nonnull %7) #23
  call void @llvm.lifetime.start.p0(i64 24, ptr nonnull %8) #23
  call fastcc void @fill_manifest(ptr noundef nonnull %7)
  call void @llvm.va_start.p0(ptr nonnull %8)
  call fastcc void @log_write_dispatch(ptr noundef %0, i32 noundef %1, ptr noundef %2, i64 noundef %3, ptr noundef %4, ptr noundef nonnull %7, ptr noundef %5, ptr noundef nonnull %8)
  call void @llvm.va_end.p0(ptr nonnull %8)
  call void @abort() #24
  unreachable
}